target datalayout = "e-m:e-p270:32:32-p271:32:32-p272:64:64-i64:64-i128:128-f80:128-n8:16:32:64-S128"
target triple = "x86_64-pc-linux-gnu"

%struct.lexbor_array_obj_t = type { ptr, i64, i64, i64 }

; Function Attrs: nounwind uwtable
define internal ptr @lexbor_array_obj_get(ptr noundef %0, i64 noundef %1) #0 {
  %3 = alloca ptr, align 8
  %4 = alloca ptr, align 8
  %5 = alloca i64, align 8
  store ptr %0, ptr %4, align 8
  store i64 %1, ptr %5, align 8
  %6 = load i64, ptr %5, align 8
  %7 = load ptr, ptr %4, align 8
  %8 = getelementptr inbounds %struct.lexbor_array_obj_t, ptr %7, i32 0, i32 2
  %9 = load i64, ptr %8, align 8
  %10 = icmp uge i64 %6, %9
  br i1 %10, label %11, label %12

11:                                               ; preds = %2
  store ptr null, ptr %3, align 8
  br label %22

12:                                               ; preds = %2
  %13 = load ptr, ptr %4, align 8
  %14 = getelementptr inbounds %struct.lexbor_array_obj_t, ptr %13, i32 0, i32 0
  %15 = load ptr, ptr %14, align 8
  %16 = load i64, ptr %5, align 8
  %17 = load ptr, ptr %4, align 8
  %18 = getelementptr inbounds %struct.lexbor_array_obj_t, ptr %17, i32 0, i32 3
  %19 = load i64, ptr %18, align 8
  %20 = mul i64 %16, %19
  %21 = getelementptr inbounds i8, ptr %15, i64 %20
  store ptr %21, ptr %3, align 8
  br label %22

22:                                               ; preds = %12, %11
  %23 = load ptr, ptr %3, align 8
  ret ptr %23
}

; Function Attrs: nounwind uwtable
define hidden ptr @lexbor_array_obj_get_noi(ptr noundef %0, i64 noundef %1) #0 {
  %3 = alloca ptr, align 8
  %4 = alloca i64, align 8
  store ptr %0, ptr %3, align 8
  store i64 %1, ptr %4, align 8
  %5 = load ptr, ptr %3, align 8
  %6 = load i64, ptr %4, align 8
  %7 = call ptr @lexbor_array_obj_get(ptr noundef %5, i64 noundef %6)
  ret ptr %7
}