; Function Attrs: mustprogress nofree norecurse nosync nounwind willreturn memory(argmem: read) uwtable
define hidden ptr @lexbor_array_obj_get_noi(ptr nocapture noundef readonly %0, i64 noundef %1) local_unnamed_addr #7 {
  %3 = getelementptr inbounds i8, ptr %0, i64 16
  %4 = load i64, ptr %3, align 8
  %.not.i = icmp ugt i64 %4, %1
  br i1 %.not.i, label %5, label %lexbor_array_obj_get.exit

5:                                                ; preds = %2
  %6 = load ptr, ptr %0, align 8
  %7 = getelementptr inbounds i8, ptr %0, i64 24
  %8 = load i64, ptr %7, align 8
  %9 = mul i64 %8, %1
  %10 = getelementptr inbounds i8, ptr %6, i64 %9
  br label %lexbor_array_obj_get.exit

lexbor_array_obj_get.exit:                        ; preds = %2, %5
  %.0.i = phi ptr [ %10, %5 ], [ null, %2 ]
  ret ptr %.0.i
}